target datalayout = "e-m:e-p270:32:32-p271:32:32-p272:64:64-i64:64-i128:128-f80:128-n8:16:32:64-S128"
target triple = "x86_64-pc-linux-gnu"

%"class.llvm::cl::opt" = type { %"class.llvm::cl::Option", %"class.llvm::cl::opt_storage", %"class.llvm::cl::parser", %"class.std::function" }
%"class.llvm::cl::Option" = type { ptr, i16, i16, i16, i16, %"class.llvm::StringRef", %"class.llvm::StringRef", %"class.llvm::StringRef", %"class.llvm::SmallVector", %"class.llvm::SmallPtrSet" }
%"class.llvm::StringRef" = type { ptr, i64 }
%"class.llvm::SmallVector" = type { %"class.llvm::SmallVectorImpl", %"struct.llvm::SmallVectorStorage" }
%"class.llvm::SmallVectorImpl" = type { %"class.llvm::SmallVectorTemplateBase" }
%"class.llvm::SmallVectorTemplateBase" = type { %"class.llvm::SmallVectorTemplateCommon" }
%"class.llvm::SmallVectorTemplateCommon" = type { %"class.llvm::SmallVectorBase" }
%"class.llvm::SmallVectorBase" = type { ptr, i32, i32 }
%"struct.llvm::SmallVectorStorage" = type { [8 x i8] }
%"class.llvm::SmallPtrSet" = type { %"class.llvm::SmallPtrSetImpl.base", [1 x ptr] }
%"class.llvm::SmallPtrSetImpl.base" = type { %"class.llvm::SmallPtrSetImplBase.base" }
%"class.llvm::SmallPtrSetImplBase.base" = type <{ ptr, ptr, i32, i32, i32 }>
%"class.llvm::cl::opt_storage" = type { i32, [4 x i8], %"struct.llvm::cl::OptionValue" }
%"struct.llvm::cl::OptionValue" = type { %"struct.llvm::cl::OptionValueBase.base", [3 x i8] }
%"struct.llvm::cl::OptionValueBase.base" = type { %"class.llvm::cl::OptionValueCopy.base" }
%"class.llvm::cl::OptionValueCopy.base" = type <{ %"struct.llvm::cl::GenericOptionValue", i32, i8 }>
%"struct.llvm::cl::GenericOptionValue" = type { ptr }
%"class.llvm::cl::parser" = type { %"class.llvm::cl::generic_parser_base", %"class.llvm::SmallVector.0" }
%"class.llvm::cl::generic_parser_base" = type { ptr, ptr }
%"class.llvm::SmallVector.0" = type { %"class.llvm::SmallVectorImpl.1", %"struct.llvm::SmallVectorStorage.4" }
%"class.llvm::SmallVectorImpl.1" = type { %"class.llvm::SmallVectorTemplateBase.2" }
%"class.llvm::SmallVectorTemplateBase.2" = type { %"class.llvm::SmallVectorTemplateCommon.3" }
%"class.llvm::SmallVectorTemplateCommon.3" = type { %"class.llvm::SmallVectorBase" }
%"struct.llvm::SmallVectorStorage.4" = type { [384 x i8] }
%"class.std::function" = type { %"class.std::_Function_base", ptr }
%"class.std::_Function_base" = type { %"union.std::_Any_data", ptr }
%"union.std::_Any_data" = type { %"union.std::_Nocopy_types" }
%"union.std::_Nocopy_types" = type { { i64, i64 } }
%"class.llvm::cl::generic_parser_base::GenericOptionInfo" = type { %"class.llvm::StringRef", %"class.llvm::StringRef" }
%"class.llvm::cl::parser<(anonymous namespace)::DefaultOnOff>::OptionInfo" = type { %"class.llvm::cl::generic_parser_base::GenericOptionInfo", %"struct.llvm::cl::OptionValue" }
%"class.llvm::SmallPtrSetImplBase" = type <{ ptr, ptr, i32, i32, i32, [4 x i8] }>

@_ZTVN4llvm2cl6OptionE = external unnamed_addr constant { [13 x ptr] }, align 8

; Function Attrs: mustprogress nounwind uwtable
define linkonce_odr hidden noundef ptr @_ZNK4llvm25SmallVectorTemplateCommonIPNS_2cl14OptionCategoryEvE10getFirstElEv(ptr noundef nonnull align 8 dereferenceable(16) %0) #1 comdat align 2 {
  %2 = alloca ptr, align 8
  store ptr %0, ptr %2, align 8
  %3 = load ptr, ptr %2, align 8
  %4 = getelementptr inbounds i8, ptr %3, i64 16
  ret ptr %4
}

; Function Attrs: mustprogress nounwind uwtable
define linkonce_odr hidden noundef zeroext i1 @_ZNK4llvm19SmallPtrSetImplBase7isSmallEv(ptr noundef nonnull align 8 dereferenceable(28) %0) #1 comdat align 2 {
  %2 = alloca ptr, align 8
  store ptr %0, ptr %2, align 8
  %3 = load ptr, ptr %2, align 8
  %4 = getelementptr inbounds nuw %"class.llvm::SmallPtrSetImplBase", ptr %3, i32 0, i32 1
  %5 = load ptr, ptr %4, align 8
  %6 = getelementptr inbounds nuw %"class.llvm::SmallPtrSetImplBase", ptr %3, i32 0, i32 0
  %7 = load ptr, ptr %6, align 8
  %8 = icmp eq ptr %5, %7
  ret i1 %8
}

; Function Attrs: mustprogress nounwind uwtable
define internal noundef ptr @_ZNK4llvm25SmallVectorTemplateCommonINS_2cl6parserIN12_GLOBAL__N_112DefaultOnOffEE10OptionInfoEvE10getFirstElEv(ptr noundef nonnull align 8 dereferenceable(16) %0) #1 align 2 {
  %2 = alloca ptr, align 8
  store ptr %0, ptr %2, align 8
  %3 = load ptr, ptr %2, align 8
  %4 = getelementptr inbounds i8, ptr %3, i64 16
  ret ptr %4
}

; Function Attrs: mustprogress nounwind uwtable
define linkonce_odr hidden noundef zeroext i1 @_ZNK4llvm25SmallVectorTemplateCommonIPNS_2cl14OptionCategoryEvE7isSmallEv(ptr noundef nonnull align 8 dereferenceable(16) %0) #1 comdat align 2 {
  %2 = alloca ptr, align 8
  store ptr %0, ptr %2, align 8
  %3 = load ptr, ptr %2, align 8
  %4 = getelementptr inbounds nuw %"class.llvm::SmallVectorBase", ptr %3, i32 0, i32 0
  %5 = load ptr, ptr %4, align 8
  %6 = call noundef ptr @_ZNK4llvm25SmallVectorTemplateCommonIPNS_2cl14OptionCategoryEvE10getFirstElEv(ptr noundef nonnull align 8 dereferenceable(16) %3)
  %7 = icmp eq ptr %5, %6
  ret i1 %7
}

; Function Attrs: mustprogress nounwind uwtable
define linkonce_odr hidden void @_ZN4llvm19SmallPtrSetImplBaseD2Ev(ptr noundef nonnull align 8 dereferenceable(28) %0) unnamed_addr #1 comdat align 2 {
  %2 = alloca ptr, align 8
  store ptr %0, ptr %2, align 8
  %3 = load ptr, ptr %2, align 8
  %4 = call noundef zeroext i1 @_ZNK4llvm19SmallPtrSetImplBase7isSmallEv(ptr noundef nonnull align 8 dereferenceable(28) %3)
  br i1 %4, label %8, label %5

5:                                                ; preds = %1
  %6 = getelementptr inbounds nuw %"class.llvm::SmallPtrSetImplBase", ptr %3, i32 0, i32 1
  %7 = load ptr, ptr %6, align 8
  call void @free(ptr noundef %7) #2
  br label %8

8:                                                ; preds = %5, %1
  ret void
}

; Function Attrs: mustprogress nounwind uwtable
define internal noundef zeroext i1 @_ZNK4llvm25SmallVectorTemplateCommonINS_2cl6parserIN12_GLOBAL__N_112DefaultOnOffEE10OptionInfoEvE7isSmallEv(ptr noundef nonnull align 8 dereferenceable(16) %0) #1 align 2 {
  %2 = alloca ptr, align 8
  store ptr %0, ptr %2, align 8
  %3 = load ptr, ptr %2, align 8
  %4 = getelementptr inbounds nuw %"class.llvm::SmallVectorBase", ptr %3, i32 0, i32 0
  %5 = load ptr, ptr %4, align 8
  %6 = call noundef ptr @_ZNK4llvm25SmallVectorTemplateCommonINS_2cl6parserIN12_GLOBAL__N_112DefaultOnOffEE10OptionInfoEvE10getFirstElEv(ptr noundef nonnull align 8 dereferenceable(16) %3)
  %7 = icmp eq ptr %5, %6
  ret i1 %7
}

; Function Attrs: mustprogress nounwind uwtable
define linkonce_odr hidden void @_ZN4llvm15SmallVectorImplIPNS_2cl14OptionCategoryEED2Ev(ptr noundef nonnull align 8 dereferenceable(16) %0) unnamed_addr #1 comdat align 2 {
  %2 = alloca ptr, align 8
  store ptr %0, ptr %2, align 8
  %3 = load ptr, ptr %2, align 8
  %4 = call noundef zeroext i1 @_ZNK4llvm25SmallVectorTemplateCommonIPNS_2cl14OptionCategoryEvE7isSmallEv(ptr noundef nonnull align 8 dereferenceable(16) %3)
  br i1 %4, label %7, label %5

5:                                                ; preds = %1
  %6 = call noundef ptr @_ZN4llvm25SmallVectorTemplateCommonIPNS_2cl14OptionCategoryEvE5beginEv(ptr noundef nonnull align 8 dereferenceable(16) %3)
  call void @free(ptr noundef %6) #2
  br label %7

7:                                                ; preds = %5, %1
  ret void
}

; Function Attrs: mustprogress nounwind uwtable
define linkonce_odr hidden void @_ZN4llvm23SmallVectorTemplateBaseIPNS_2cl14OptionCategoryELb1EE13destroy_rangeEPS3_S5_(ptr noundef %0, ptr noundef %1) #1 comdat align 2 {
  %3 = alloca ptr, align 8
  %4 = alloca ptr, align 8
  store ptr %0, ptr %3, align 8
  store ptr %1, ptr %4, align 8
  ret void
}

; Function Attrs: mustprogress nounwind uwtable
define linkonce_odr hidden noundef ptr @_ZN4llvm25SmallVectorTemplateCommonIPNS_2cl14OptionCategoryEvE3endEv(ptr noundef nonnull align 8 dereferenceable(16) %0) #1 comdat align 2 {
  %2 = alloca ptr, align 8
  store ptr %0, ptr %2, align 8
  %3 = load ptr, ptr %2, align 8
  %4 = call noundef ptr @_ZN4llvm25SmallVectorTemplateCommonIPNS_2cl14OptionCategoryEvE5beginEv(ptr noundef nonnull align 8 dereferenceable(16) %3)
  %5 = call noundef i64 @_ZNK4llvm15SmallVectorBaseIjE4sizeEv(ptr noundef nonnull align 8 dereferenceable(16) %3)
  %6 = getelementptr inbounds ptr, ptr %4, i64 %5
  ret ptr %6
}

; Function Attrs: mustprogress nounwind uwtable
define linkonce_odr hidden noundef ptr @_ZN4llvm25SmallVectorTemplateCommonIPNS_2cl14OptionCategoryEvE5beginEv(ptr noundef nonnull align 8 dereferenceable(16) %0) #1 comdat align 2 {
  %2 = alloca ptr, align 8
  store ptr %0, ptr %2, align 8
  %3 = load ptr, ptr %2, align 8
  %4 = getelementptr inbounds nuw %"class.llvm::SmallVectorBase", ptr %3, i32 0, i32 0
  %5 = load ptr, ptr %4, align 8
  ret ptr %5
}

; Function Attrs: mustprogress nounwind uwtable
define linkonce_odr hidden void @_ZN4llvm15SmallPtrSetImplIPNS_2cl10SubCommandEED2Ev(ptr noundef nonnull align 8 dereferenceable(28) %0) unnamed_addr #1 comdat align 2 {
  %2 = alloca ptr, align 8
  store ptr %0, ptr %2, align 8
  %3 = load ptr, ptr %2, align 8
  call void @_ZN4llvm19SmallPtrSetImplBaseD2Ev(ptr noundef nonnull align 8 dereferenceable(28) %3) #2
  ret void
}

; Function Attrs: mustprogress nounwind uwtable
define internal void @_ZN4llvm15SmallVectorImplINS_2cl6parserIN12_GLOBAL__N_112DefaultOnOffEE10OptionInfoEED2Ev(ptr noundef nonnull align 8 dereferenceable(16) %0) unnamed_addr #1 align 2 {
  %2 = alloca ptr, align 8
  store ptr %0, ptr %2, align 8
  %3 = load ptr, ptr %2, align 8
  %4 = call noundef zeroext i1 @_ZNK4llvm25SmallVectorTemplateCommonINS_2cl6parserIN12_GLOBAL__N_112DefaultOnOffEE10OptionInfoEvE7isSmallEv(ptr noundef nonnull align 8 dereferenceable(16) %3)
  br i1 %4, label %7, label %5

5:                                                ; preds = %1
  %6 = call noundef ptr @_ZN4llvm25SmallVectorTemplateCommonINS_2cl6parserIN12_GLOBAL__N_112DefaultOnOffEE10OptionInfoEvE5beginEv(ptr noundef nonnull align 8 dereferenceable(16) %3)
  call void @free(ptr noundef %6) #2
  br label %7

7:                                                ; preds = %5, %1
  ret void
}

; Function Attrs: mustprogress nounwind uwtable
define internal void @_ZN4llvm23SmallVectorTemplateBaseINS_2cl6parserIN12_GLOBAL__N_112DefaultOnOffEE10OptionInfoELb0EE13destroy_rangeEPS6_S8_(ptr noundef %0, ptr noundef %1) #1 align 2 {
  %3 = alloca ptr, align 8
  %4 = alloca ptr, align 8
  store ptr %0, ptr %3, align 8
  store ptr %1, ptr %4, align 8
  br label %5

5:                                                ; preds = %9, %2
  %6 = load ptr, ptr %3, align 8
  %7 = load ptr, ptr %4, align 8
  %8 = icmp ne ptr %6, %7
  br i1 %8, label %9, label %12

9:                                                ; preds = %5
  %10 = load ptr, ptr %4, align 8
  %11 = getelementptr inbounds %"class.llvm::cl::parser<(anonymous namespace)::DefaultOnOff>::OptionInfo", ptr %10, i32 -1
  store ptr %11, ptr %4, align 8
  br label %5, !llvm.loop !4

12:                                               ; preds = %5
  ret void
}

; Function Attrs: mustprogress nounwind uwtable
define internal noundef ptr @_ZN4llvm25SmallVectorTemplateCommonINS_2cl6parserIN12_GLOBAL__N_112DefaultOnOffEE10OptionInfoEvE3endEv(ptr noundef nonnull align 8 dereferenceable(16) %0) #1 align 2 {
  %2 = alloca ptr, align 8
  store ptr %0, ptr %2, align 8
  %3 = load ptr, ptr %2, align 8
  %4 = call noundef ptr @_ZN4llvm25SmallVectorTemplateCommonINS_2cl6parserIN12_GLOBAL__N_112DefaultOnOffEE10OptionInfoEvE5beginEv(ptr noundef nonnull align 8 dereferenceable(16) %3)
  %5 = call noundef i64 @_ZNK4llvm15SmallVectorBaseIjE4sizeEv(ptr noundef nonnull align 8 dereferenceable(16) %3)
  %6 = getelementptr inbounds %"class.llvm::cl::parser<(anonymous namespace)::DefaultOnOff>::OptionInfo", ptr %4, i64 %5
  ret ptr %6
}

; Function Attrs: mustprogress nounwind uwtable
define internal noundef ptr @_ZN4llvm25SmallVectorTemplateCommonINS_2cl6parserIN12_GLOBAL__N_112DefaultOnOffEE10OptionInfoEvE5beginEv(ptr noundef nonnull align 8 dereferenceable(16) %0) #1 align 2 {
  %2 = alloca ptr, align 8
  store ptr %0, ptr %2, align 8
  %3 = load ptr, ptr %2, align 8
  %4 = getelementptr inbounds nuw %"class.llvm::SmallVectorBase", ptr %3, i32 0, i32 0
  %5 = load ptr, ptr %4, align 8
  ret ptr %5
}

; Function Attrs: mustprogress nounwind uwtable
define linkonce_odr hidden void @_ZN4llvm11SmallVectorIPNS_2cl14OptionCategoryELj1EED2Ev(ptr noundef nonnull align 8 dereferenceable(24) %0) unnamed_addr #1 comdat align 2 {
  %2 = alloca ptr, align 8
  store ptr %0, ptr %2, align 8
  %3 = load ptr, ptr %2, align 8
  %4 = call noundef ptr @_ZN4llvm25SmallVectorTemplateCommonIPNS_2cl14OptionCategoryEvE5beginEv(ptr noundef nonnull align 8 dereferenceable(16) %3)
  %5 = call noundef ptr @_ZN4llvm25SmallVectorTemplateCommonIPNS_2cl14OptionCategoryEvE3endEv(ptr noundef nonnull align 8 dereferenceable(16) %3)
  call void @_ZN4llvm23SmallVectorTemplateBaseIPNS_2cl14OptionCategoryELb1EE13destroy_rangeEPS3_S5_(ptr noundef %4, ptr noundef %5)
  call void @_ZN4llvm15SmallVectorImplIPNS_2cl14OptionCategoryEED2Ev(ptr noundef nonnull align 8 dereferenceable(16) %3) #2
  ret void
}

; Function Attrs: mustprogress nounwind uwtable
define linkonce_odr hidden void @_ZN4llvm11SmallPtrSetIPNS_2cl10SubCommandELj1EED2Ev(ptr noundef nonnull align 8 dereferenceable(40) %0) unnamed_addr #1 comdat align 2 {
  %2 = alloca ptr, align 8
  store ptr %0, ptr %2, align 8
  %3 = load ptr, ptr %2, align 8
  call void @_ZN4llvm15SmallPtrSetImplIPNS_2cl10SubCommandEED2Ev(ptr noundef nonnull align 8 dereferenceable(28) %3) #2
  ret void
}

; Function Attrs: mustprogress nounwind uwtable
define linkonce_odr hidden void @_ZN4llvm2cl19generic_parser_baseD2Ev(ptr noundef nonnull align 8 dereferenceable(16) %0) unnamed_addr #1 comdat align 2 {
  %2 = alloca ptr, align 8
  store ptr %0, ptr %2, align 8
  ret void
}

; Function Attrs: mustprogress nounwind uwtable
define internal void @_ZN4llvm11SmallVectorINS_2cl6parserIN12_GLOBAL__N_112DefaultOnOffEE10OptionInfoELj8EED2Ev(ptr noundef nonnull align 8 dereferenceable(400) %0) unnamed_addr #1 align 2 {
  %2 = alloca ptr, align 8
  store ptr %0, ptr %2, align 8
  %3 = load ptr, ptr %2, align 8
  %4 = call noundef ptr @_ZN4llvm25SmallVectorTemplateCommonINS_2cl6parserIN12_GLOBAL__N_112DefaultOnOffEE10OptionInfoEvE5beginEv(ptr noundef nonnull align 8 dereferenceable(16) %3)
  %5 = call noundef ptr @_ZN4llvm25SmallVectorTemplateCommonINS_2cl6parserIN12_GLOBAL__N_112DefaultOnOffEE10OptionInfoEvE3endEv(ptr noundef nonnull align 8 dereferenceable(16) %3)
  call void @_ZN4llvm23SmallVectorTemplateBaseINS_2cl6parserIN12_GLOBAL__N_112DefaultOnOffEE10OptionInfoELb0EE13destroy_rangeEPS6_S8_(ptr noundef %4, ptr noundef %5)
  call void @_ZN4llvm15SmallVectorImplINS_2cl6parserIN12_GLOBAL__N_112DefaultOnOffEE10OptionInfoEED2Ev(ptr noundef nonnull align 8 dereferenceable(16) %3) #2
  ret void
}

; Function Attrs: mustprogress nounwind uwtable
define linkonce_odr hidden void @_ZNSt14_Function_baseD2Ev(ptr noundef nonnull align 8 dereferenceable(24) %0) unnamed_addr #1 comdat align 2 {
  %2 = alloca ptr, align 8
  store ptr %0, ptr %2, align 8
  %3 = load ptr, ptr %2, align 8
  %4 = getelementptr inbounds nuw %"class.std::_Function_base", ptr %3, i32 0, i32 1
  %5 = load ptr, ptr %4, align 8
  %6 = icmp ne ptr %5, null
  br i1 %6, label %7, label %13

7:                                                ; preds = %1
  %8 = getelementptr inbounds nuw %"class.std::_Function_base", ptr %3, i32 0, i32 1
  %9 = load ptr, ptr %8, align 8
  %10 = getelementptr inbounds nuw %"class.std::_Function_base", ptr %3, i32 0, i32 0
  %11 = getelementptr inbounds nuw %"class.std::_Function_base", ptr %3, i32 0, i32 0
  %12 = call noundef zeroext i1 %9(ptr noundef nonnull align 8 dereferenceable(16) %10, ptr noundef nonnull align 8 dereferenceable(16) %11, i32 noundef 3)
  br label %13

13:                                               ; preds = %7, %1
  ret void
}

; Function Attrs: mustprogress nounwind uwtable
define linkonce_odr hidden void @_ZN4llvm2cl6OptionD2Ev(ptr noundef nonnull align 8 dereferenceable(128) %0) unnamed_addr #1 comdat align 2 {
  %2 = alloca ptr, align 8
  store ptr %0, ptr %2, align 8
  %3 = load ptr, ptr %2, align 8
  store ptr getelementptr inbounds inrange(-16, 88) ({ [13 x ptr] }, ptr @_ZTVN4llvm2cl6OptionE, i32 0, i32 0, i32 2), ptr %3, align 8
  %4 = getelementptr inbounds nuw %"class.llvm::cl::Option", ptr %3, i32 0, i32 9
  call void @_ZN4llvm11SmallPtrSetIPNS_2cl10SubCommandELj1EED2Ev(ptr noundef nonnull align 8 dereferenceable(40) %4) #2
  %5 = getelementptr inbounds nuw %"class.llvm::cl::Option", ptr %3, i32 0, i32 8
  call void @_ZN4llvm11SmallVectorIPNS_2cl14OptionCategoryELj1EED2Ev(ptr noundef nonnull align 8 dereferenceable(24) %5) #2
  ret void
}

; Function Attrs: mustprogress nounwind uwtable
define internal void @_ZN4llvm2cl6parserIN12_GLOBAL__N_112DefaultOnOffEED2Ev(ptr noundef nonnull align 8 dereferenceable(416) %0) unnamed_addr #1 align 2 {
  %2 = alloca ptr, align 8
  store ptr %0, ptr %2, align 8
  %3 = load ptr, ptr %2, align 8
  store ptr getelementptr inbounds inrange(-16, 64) ({ [10 x ptr] }, ptr @_ZTVN4llvm2cl6parserIN12_GLOBAL__N_112DefaultOnOffEEE, i32 0, i32 0, i32 2), ptr %3, align 8
  %4 = getelementptr inbounds nuw %"class.llvm::cl::parser", ptr %3, i32 0, i32 1
  call void @_ZN4llvm11SmallVectorINS_2cl6parserIN12_GLOBAL__N_112DefaultOnOffEE10OptionInfoELj8EED2Ev(ptr noundef nonnull align 8 dereferenceable(400) %4) #2
  call void @_ZN4llvm2cl19generic_parser_baseD2Ev(ptr noundef nonnull align 8 dereferenceable(16) %3) #2
  ret void
}

; Function Attrs: mustprogress nounwind uwtable
define internal void @_ZNSt8functionIFvRKN12_GLOBAL__N_112DefaultOnOffEEED2Ev(ptr noundef nonnull align 8 dereferenceable(32) %0) unnamed_addr #1 align 2 {
  %2 = alloca ptr, align 8
  store ptr %0, ptr %2, align 8
  %3 = load ptr, ptr %2, align 8
  call void @_ZNSt14_Function_baseD2Ev(ptr noundef nonnull align 8 dereferenceable(24) %3) #2
  ret void
}

; Function Attrs: mustprogress nounwind uwtable
define internal void @_ZN4llvm2cl3optIN12_GLOBAL__N_112DefaultOnOffELb0ENS0_6parserIS3_EEED2Ev(ptr noundef nonnull align 8 dereferenceable(600) %0) unnamed_addr #1 align 2 {
  %2 = alloca ptr, align 8
  store ptr %0, ptr %2, align 8
  %3 = load ptr, ptr %2, align 8
  store ptr getelementptr inbounds inrange(-16, 88) ({ [13 x ptr] }, ptr @_ZTVN4llvm2cl3optIN12_GLOBAL__N_112DefaultOnOffELb0ENS0_6parserIS3_EEEE, i32 0, i32 0, i32 2), ptr %3, align 8
  %4 = getelementptr inbounds nuw %"class.llvm::cl::opt", ptr %3, i32 0, i32 3
  call void @_ZNSt8functionIFvRKN12_GLOBAL__N_112DefaultOnOffEEED2Ev(ptr noundef nonnull align 8 dereferenceable(32) %4) #2
  %5 = getelementptr inbounds nuw %"class.llvm::cl::opt", ptr %3, i32 0, i32 2
  call void @_ZN4llvm2cl6parserIN12_GLOBAL__N_112DefaultOnOffEED2Ev(ptr noundef nonnull align 8 dereferenceable(416) %5) #2
  call void @_ZN4llvm2cl6OptionD2Ev(ptr noundef nonnull align 8 dereferenceable(128) %3) #2
  ret void
}