; Function Attrs: mustprogress nounwind uwtable
define internal void @_ZN4llvm2cl3optIN12_GLOBAL__N_112DefaultOnOffELb0ENS0_6parserIS3_EEED2Ev(ptr noundef nonnull align 8 dereferenceable(600) %0) unnamed_addr #0 align 2 {
  store ptr getelementptr inbounds inrange(-16, 88) (i8, ptr @_ZTVN4llvm2cl3optIN12_GLOBAL__N_112DefaultOnOffELb0ENS0_6parserIS3_EEEE, i64 16), ptr %0, align 8
  %2 = getelementptr inbounds i8, ptr %0, i64 584
  %3 = load ptr, ptr %2, align 8
  %.not.i.i = icmp eq ptr %3, null
  br i1 %.not.i.i, label %_ZNSt8functionIFvRKN12_GLOBAL__N_112DefaultOnOffEEED2Ev.exit, label %4

4:                                                ; preds = %1
  %5 = getelementptr inbounds nuw i8, ptr %0, i64 568
  %6 = tail call noundef zeroext i1 %3(ptr noundef nonnull align 8 dereferenceable(16) %5, ptr noundef nonnull align 8 dereferenceable(16) %5, i32 noundef 3) #22
  br label %_ZNSt8functionIFvRKN12_GLOBAL__N_112DefaultOnOffEEED2Ev.exit

_ZNSt8functionIFvRKN12_GLOBAL__N_112DefaultOnOffEEED2Ev.exit: ; preds = %1, %4
  %7 = getelementptr inbounds nuw i8, ptr %0, i64 152
  store ptr getelementptr inbounds inrange(-16, 64) (i8, ptr @_ZTVN4llvm2cl6parserIN12_GLOBAL__N_112DefaultOnOffEEE, i64 16), ptr %7, align 8
  %8 = getelementptr inbounds i8, ptr %0, i64 168
  %9 = tail call noundef i64 @_ZNK4llvm15SmallVectorBaseIjE4sizeEv(ptr noundef nonnull align 8 dereferenceable(16) %8) #22
  %10 = load ptr, ptr %8, align 8
  %11 = getelementptr inbounds i8, ptr %0, i64 184
  %12 = icmp eq ptr %10, %11
  br i1 %12, label %_ZN4llvm2cl6parserIN12_GLOBAL__N_112DefaultOnOffEED2Ev.exit, label %13

13:                                               ; preds = %_ZNSt8functionIFvRKN12_GLOBAL__N_112DefaultOnOffEEED2Ev.exit
  tail call void @free(ptr noundef %10) #22
  br label %_ZN4llvm2cl6parserIN12_GLOBAL__N_112DefaultOnOffEED2Ev.exit

_ZN4llvm2cl6parserIN12_GLOBAL__N_112DefaultOnOffEED2Ev.exit: ; preds = %_ZNSt8functionIFvRKN12_GLOBAL__N_112DefaultOnOffEEED2Ev.exit, %13
  store ptr getelementptr inbounds inrange(-16, 88) (i8, ptr @_ZTVN4llvm2cl6OptionE, i64 16), ptr %0, align 8
  %14 = getelementptr inbounds nuw i8, ptr %0, i64 88
  %15 = getelementptr inbounds i8, ptr %0, i64 96
  %16 = load ptr, ptr %15, align 8
  %17 = load ptr, ptr %14, align 8
  %18 = icmp eq ptr %16, %17
  br i1 %18, label %_ZN4llvm11SmallPtrSetIPNS_2cl10SubCommandELj1EED2Ev.exit.i, label %19

19:                                               ; preds = %_ZN4llvm2cl6parserIN12_GLOBAL__N_112DefaultOnOffEED2Ev.exit
  tail call void @free(ptr noundef %16) #22
  br label %_ZN4llvm11SmallPtrSetIPNS_2cl10SubCommandELj1EED2Ev.exit.i

_ZN4llvm11SmallPtrSetIPNS_2cl10SubCommandELj1EED2Ev.exit.i: ; preds = %19, %_ZN4llvm2cl6parserIN12_GLOBAL__N_112DefaultOnOffEED2Ev.exit
  %20 = getelementptr inbounds nuw i8, ptr %0, i64 64
  %21 = tail call noundef i64 @_ZNK4llvm15SmallVectorBaseIjE4sizeEv(ptr noundef nonnull align 8 dereferenceable(16) %20) #22
  %22 = load ptr, ptr %20, align 8
  %23 = getelementptr inbounds i8, ptr %0, i64 80
  %24 = icmp eq ptr %22, %23
  br i1 %24, label %_ZN4llvm2cl6OptionD2Ev.exit, label %25

25:                                               ; preds = %_ZN4llvm11SmallPtrSetIPNS_2cl10SubCommandELj1EED2Ev.exit.i
  tail call void @free(ptr noundef %22) #22
  br label %_ZN4llvm2cl6OptionD2Ev.exit

_ZN4llvm2cl6OptionD2Ev.exit:                      ; preds = %_ZN4llvm11SmallPtrSetIPNS_2cl10SubCommandELj1EED2Ev.exit.i, %25
  ret void
}